; Function Attrs: mustprogress uwtable
define void @_ZN3zmq15tcp_connecter_t16start_connectingEv(ptr noundef nonnull align 8 dereferenceable(1552) %0) unnamed_addr #0 align 2 personality ptr @__gxx_personality_v0 {
  %2 = alloca %"struct.zmq::endpoint_uri_pair_t", align 8
  %3 = tail call noundef i32 @_ZN3zmq15tcp_connecter_t4openEv(ptr noundef nonnull align 8 dereferenceable(1552) %0)
  %4 = icmp eq i32 %3, 0
  br i1 %4, label %5, label %11

5:                                                ; preds = %1
  %6 = getelementptr inbounds nuw i8, ptr %0, i64 1448
  %7 = getelementptr inbounds nuw i8, ptr %0, i64 1472
  %8 = load i32, ptr %7, align 8, !tbaa !90
  %9 = tail call noundef ptr @_ZN3zmq11io_object_t6add_fdEi(ptr noundef nonnull align 8 dereferenceable(16) %6, i32 noundef %8)
  %10 = getelementptr inbounds nuw i8, ptr %0, i64 1480
  store ptr %9, ptr %10, align 8, !tbaa !92
  tail call void @_ZN3zmq15tcp_connecter_t9out_eventEv(ptr noundef nonnull align 8 dereferenceable(1552) %0)
  br label %_ZN3zmq15tcp_connecter_t17add_connect_timerEv.exit

11:                                               ; preds = %1
  %12 = tail call ptr @__errno_location() #20
  %13 = load i32, ptr %12, align 4, !tbaa !76
  %14 = icmp eq i32 %13, 115
  br i1 %14, label %15, label %47

15:                                               ; preds = %11
  %16 = getelementptr inbounds nuw i8, ptr %0, i64 1448
  %17 = getelementptr inbounds nuw i8, ptr %0, i64 1472
  %18 = load i32, ptr %17, align 8, !tbaa !90
  %19 = tail call noundef ptr @_ZN3zmq11io_object_t6add_fdEi(ptr noundef nonnull align 8 dereferenceable(16) %16, i32 noundef %18)
  %20 = getelementptr inbounds nuw i8, ptr %0, i64 1480
  store ptr %19, ptr %20, align 8, !tbaa !92
  tail call void @_ZN3zmq11io_object_t11set_polloutEPv(ptr noundef nonnull align 8 dereferenceable(16) %16, ptr noundef %19)
  %21 = getelementptr inbounds nuw i8, ptr %0, i64 1520
  %22 = load ptr, ptr %21, align 8, !tbaa !93
  call void @llvm.lifetime.start.p0(i64 72, ptr nonnull %2) #16
  %23 = getelementptr inbounds nuw i8, ptr %0, i64 1488
  call void @_ZN3zmq38make_unconnected_connect_endpoint_pairERKNSt7__cxx1112basic_stringIcSt11char_traitsIcESaIcEEE(ptr dead_on_unwind nonnull writable sret(%"struct.zmq::endpoint_uri_pair_t") align 8 %2, ptr noundef nonnull align 8 dereferenceable(32) %23)
  %24 = invoke i32 @zmq_errno()
          to label %25 unwind label %45

25:                                               ; preds = %15
  invoke void @_ZN3zmq13socket_base_t21event_connect_delayedERKNS_19endpoint_uri_pair_tEi(ptr noundef nonnull align 8 dereferenceable(1825) %22, ptr noundef nonnull align 8 dereferenceable(68) %2, i32 noundef %24)
          to label %26 unwind label %45

26:                                               ; preds = %25
  %27 = getelementptr inbounds nuw i8, ptr %2, i64 32
  %28 = load ptr, ptr %27, align 8, !tbaa !89
  %29 = getelementptr inbounds nuw i8, ptr %2, i64 48
  %30 = icmp eq ptr %28, %29
  br i1 %30, label %_ZNKSt7__cxx1112basic_stringIcSt11char_traitsIcESaIcEE11_M_is_localEv.exit.thread.i.i.i, label %_ZNKSt7__cxx1112basic_stringIcSt11char_traitsIcESaIcEE11_M_is_localEv.exit.i.i.i

_ZNKSt7__cxx1112basic_stringIcSt11char_traitsIcESaIcEE11_M_is_localEv.exit.thread.i.i.i: ; preds = %26
  %31 = getelementptr inbounds nuw i8, ptr %2, i64 40
  %32 = load i64, ptr %31, align 8, !tbaa !87
  %33 = icmp ult i64 %32, 16
  call void @llvm.assume(i1 %33)
  br label %_ZNSt7__cxx1112basic_stringIcSt11char_traitsIcESaIcEED2Ev.exit.i

_ZNKSt7__cxx1112basic_stringIcSt11char_traitsIcESaIcEE11_M_is_localEv.exit.i.i.i: ; preds = %26
  call void @_ZdlPv(ptr noundef %28) #19
  br label %_ZNSt7__cxx1112basic_stringIcSt11char_traitsIcESaIcEED2Ev.exit.i

_ZNSt7__cxx1112basic_stringIcSt11char_traitsIcESaIcEED2Ev.exit.i: ; preds = %_ZNKSt7__cxx1112basic_stringIcSt11char_traitsIcESaIcEE11_M_is_localEv.exit.i.i.i, %_ZNKSt7__cxx1112basic_stringIcSt11char_traitsIcESaIcEE11_M_is_localEv.exit.thread.i.i.i
  %34 = load ptr, ptr %2, align 8, !tbaa !89
  %35 = getelementptr inbounds nuw i8, ptr %2, i64 16
  %36 = icmp eq ptr %34, %35
  br i1 %36, label %_ZNKSt7__cxx1112basic_stringIcSt11char_traitsIcESaIcEE11_M_is_localEv.exit.thread.i.i2.i, label %_ZNKSt7__cxx1112basic_stringIcSt11char_traitsIcESaIcEE11_M_is_localEv.exit.i.i1.i

_ZNKSt7__cxx1112basic_stringIcSt11char_traitsIcESaIcEE11_M_is_localEv.exit.thread.i.i2.i: ; preds = %_ZNSt7__cxx1112basic_stringIcSt11char_traitsIcESaIcEED2Ev.exit.i
  %37 = getelementptr inbounds nuw i8, ptr %2, i64 8
  %38 = load i64, ptr %37, align 8, !tbaa !87
  %39 = icmp ult i64 %38, 16
  call void @llvm.assume(i1 %39)
  br label %_ZN3zmq19endpoint_uri_pair_tD2Ev.exit

_ZNKSt7__cxx1112basic_stringIcSt11char_traitsIcESaIcEE11_M_is_localEv.exit.i.i1.i: ; preds = %_ZNSt7__cxx1112basic_stringIcSt11char_traitsIcESaIcEED2Ev.exit.i
  call void @_ZdlPv(ptr noundef %34) #19
  br label %_ZN3zmq19endpoint_uri_pair_tD2Ev.exit

_ZN3zmq19endpoint_uri_pair_tD2Ev.exit:            ; preds = %_ZNKSt7__cxx1112basic_stringIcSt11char_traitsIcESaIcEE11_M_is_localEv.exit.thread.i.i2.i, %_ZNKSt7__cxx1112basic_stringIcSt11char_traitsIcESaIcEE11_M_is_localEv.exit.i.i1.i
  call void @llvm.lifetime.end.p0(i64 72, ptr nonnull %2) #16
  %40 = getelementptr inbounds nuw i8, ptr %0, i64 340
  %41 = load i32, ptr %40, align 4, !tbaa !94
  %42 = icmp sgt i32 %41, 0
  br i1 %42, label %43, label %_ZN3zmq15tcp_connecter_t17add_connect_timerEv.exit

43:                                               ; preds = %_ZN3zmq19endpoint_uri_pair_tD2Ev.exit
  call void @_ZN3zmq11io_object_t9add_timerEii(ptr noundef nonnull align 8 dereferenceable(16) %16, i32 noundef %41, i32 noundef 2)
  %44 = getelementptr inbounds nuw i8, ptr %0, i64 1544
  store i8 1, ptr %44, align 8, !tbaa !6
  br label %_ZN3zmq15tcp_connecter_t17add_connect_timerEv.exit

45:                                               ; preds = %25, %15
  %46 = landingpad { ptr, i32 }
          cleanup
  call void @_ZN3zmq19endpoint_uri_pair_tD2Ev(ptr noundef nonnull align 8 dereferenceable(68) %2) #16
  call void @llvm.lifetime.end.p0(i64 72, ptr nonnull %2) #16
  resume { ptr, i32 } %46

47:                                               ; preds = %11
  %48 = getelementptr inbounds nuw i8, ptr %0, i64 1472
  %49 = load i32, ptr %48, align 8, !tbaa !90
  %.not = icmp eq i32 %49, -1
  br i1 %.not, label %51, label %50

50:                                               ; preds = %47
  tail call void @_ZN3zmq23stream_connecter_base_t5closeEv(ptr noundef nonnull align 8 dereferenceable(1544) %0)
  br label %51

51:                                               ; preds = %50, %47
  tail call void @_ZN3zmq23stream_connecter_base_t19add_reconnect_timerEv(ptr noundef nonnull align 8 dereferenceable(1544) %0)
  br label %_ZN3zmq15tcp_connecter_t17add_connect_timerEv.exit

_ZN3zmq15tcp_connecter_t17add_connect_timerEv.exit: ; preds = %43, %_ZN3zmq19endpoint_uri_pair_tD2Ev.exit, %51, %5
  ret void
}